(dp0
Vmessages
p1
(lp2
VCould not find any messages containing line information.
p3
aVPlease take a look at the log file main.latexmk.log to find the source of the problem.
p4
asVfiles_with_guttermarks
p5
c__builtin__
set
p6
((lp7
V/Users/jann/Documents/Forschung/robust/book/robregbk/stbook/./chapter2.tex
p8
aV/Users/jann/Documents/Forschung/robust/book/robregbk/stbook/dof/4/7.log.tex
p9
aV/Users/jann/Documents/Forschung/robust/book/robregbk/stbook/dof/3/6.log.tex
p10
aV/Users/jann/Documents/Forschung/robust/book/robregbk/stbook/chapter4.tex
p11
aV/Users/jann/Documents/Forschung/robust/book/robregbk/stbook/chapter3.tex
p12
aV/Users/jann/Documents/Forschung/robust/book/robregbk/stbook/chapter1.tex
p13
aV/Users/jann/Documents/Forschung/robust/book/robregbk/stbook/dof/4/5.log.tex
p14
aV/Users/jann/Documents/Forschung/robust/book/robregbk/stbook/dof/2/1.log.tex
p15
aV/Users/jann/Documents/Forschung/robust/book/robregbk/stbook/chapter2.tex
p16
atp17
Rp18
s.