(dp0
Vmessages
p1
(lp2
VWARNING chapter4.tex:814 \u2014 LaTeX Warning: Reference `chap:mv' on page 71 undefined on input line 814.
p3
asVfiles_with_guttermarks
p4
c__builtin__
set
p5
((lp6
V/Users/jann/Documents/Forschung/robust/book/robregbk/stbook/dof/4/13.log.tex
p7
aV/Users/jann/Documents/Forschung/robust/book/robregbk/stbook/dof/4/19.log.tex
p8
aV/Users/jann/Documents/Forschung/robust/book/robregbk/stbook/dof/4/10.log.tex
p9
aV/Users/jann/Documents/Forschung/robust/book/robregbk/stbook/dof/3/6.log.tex
p10
aV/Users/jann/Documents/Forschung/robust/book/robregbk/stbook/chapter4.tex
p11
aV/Users/jann/Documents/Forschung/robust/book/robregbk/stbook/chapter3.tex
p12
aV/Users/jann/Documents/Forschung/robust/book/robregbk/stbook/dof/4/11.log.tex
p13
aV/Users/jann/Documents/Forschung/robust/book/robregbk/stbook/chapter1.tex
p14
aV/Users/jann/Documents/Forschung/robust/book/robregbk/stbook/dof/4/20.log.tex
p15
aV/Users/jann/Documents/Forschung/robust/book/robregbk/stbook/notation.tex
p16
aV/Users/jann/Documents/Forschung/robust/book/robregbk/stbook/dof/4/9.log.tex
p17
aV/Users/jann/Documents/Forschung/robust/book/robregbk/stbook/dof/2/1.log.tex
p18
aV/Users/jann/Documents/Forschung/robust/book/robregbk/stbook/./chapter4.tex
p19
aV/Users/jann/Documents/Forschung/robust/book/robregbk/stbook/chapter2.tex
p20
atp21
Rp22
s.